target datalayout = "e-m:e-p270:32:32-p271:32:32-p272:64:64-i64:64-i128:128-f80:128-n8:16:32:64-S128"
target triple = "x86_64-pc-linux-gnu"

%struct.anon = type { i32, ptr, i32, i32 }

; Function Attrs: nounwind uwtable
define internal i32 @register_events(ptr noundef %0) #0 {
  %2 = alloca i32, align 4
  %3 = alloca ptr, align 8
  %4 = alloca i64, align 8
  store ptr %0, ptr %3, align 8
  store i64 0, ptr %4, align 8
  br label %5

5:                                                ; preds = %30, %1
  %6 = load i64, ptr %4, align 8
  %7 = icmp ult i64 %6, 14
  br i1 %7, label %8, label %33

8:                                                ; preds = %5
  %9 = load ptr, ptr %3, align 8
  %10 = load i64, ptr %4, align 8
  %11 = getelementptr inbounds [14 x %struct.anon], ptr @bc_events, i64 0, i64 %10
  %12 = getelementptr inbounds %struct.anon, ptr %11, i32 0, i32 0
  %13 = load i32, ptr %12, align 8
  %14 = load i64, ptr %4, align 8
  %15 = getelementptr inbounds [14 x %struct.anon], ptr @bc_events, i64 0, i64 %14
  %16 = getelementptr inbounds %struct.anon, ptr %15, i32 0, i32 1
  %17 = load ptr, ptr %16, align 8
  %18 = load i64, ptr %4, align 8
  %19 = getelementptr inbounds [14 x %struct.anon], ptr @bc_events, i64 0, i64 %18
  %20 = getelementptr inbounds %struct.anon, ptr %19, i32 0, i32 2
  %21 = load i32, ptr %20, align 8
  %22 = load i64, ptr %4, align 8
  %23 = getelementptr inbounds [14 x %struct.anon], ptr @bc_events, i64 0, i64 %22
  %24 = getelementptr inbounds %struct.anon, ptr %23, i32 0, i32 3
  %25 = load i32, ptr %24, align 4
  %26 = call i32 @cli_event_define(ptr noundef %9, i32 noundef %13, ptr noundef %17, i32 noundef %21, i32 noundef %25)
  %27 = icmp eq i32 %26, -1
  br i1 %27, label %28, label %29

28:                                               ; preds = %8
  store i32 -1, ptr %2, align 4
  br label %34

29:                                               ; preds = %8
  br label %30

30:                                               ; preds = %29
  %31 = load i64, ptr %4, align 8
  %32 = add i64 %31, 1
  store i64 %32, ptr %4, align 8
  br label %5

33:                                               ; preds = %5
  store i32 0, ptr %2, align 4
  br label %34

34:                                               ; preds = %33, %28
  %35 = load i32, ptr %2, align 4
  ret i32 %35
}