; Function Attrs: nounwind uwtable
define internal fastcc noundef i32 @register_events(ptr noundef %0) unnamed_addr #0 {
  br label %4

2:                                                ; preds = %4
  %3 = add nuw nsw i64 %.08, 1
  %exitcond.not = icmp eq i64 %3, 14
  br i1 %exitcond.not, label %15, label %4

4:                                                ; preds = %1, %2
  %.08 = phi i64 [ 0, %1 ], [ %3, %2 ]
  %5 = getelementptr inbounds [14 x %struct.anon], ptr @bc_events, i64 0, i64 %.08
  %6 = load i32, ptr %5, align 8
  %7 = getelementptr inbounds i8, ptr %5, i64 8
  %8 = load ptr, ptr %7, align 8
  %9 = getelementptr inbounds i8, ptr %5, i64 16
  %10 = load i32, ptr %9, align 8
  %11 = getelementptr inbounds i8, ptr %5, i64 20
  %12 = load i32, ptr %11, align 4
  %13 = tail call i32 @cli_event_define(ptr noundef %0, i32 noundef %6, ptr noundef %8, i32 noundef %10, i32 noundef %12) #25
  %14 = icmp eq i32 %13, -1
  br i1 %14, label %15, label %2

15:                                               ; preds = %2, %4
  %.07 = phi i32 [ -1, %4 ], [ 0, %2 ]
  ret i32 %.07
}